target datalayout = "e-m:e-p270:32:32-p271:32:32-p272:64:64-i64:64-i128:128-f80:128-n8:16:32:64-S128"
target triple = "x86_64-unknown-linux-gnu"

%"class.cvc5::internal::theory::quantifiers::inst::TriggerDatabase" = type { %"class.cvc5::internal::EnvObj", %"class.cvc5::internal::theory::quantifiers::inst::TriggerTrie", ptr, ptr, ptr, ptr }
%"class.cvc5::internal::EnvObj" = type { ptr, ptr }
%"class.cvc5::internal::theory::quantifiers::inst::TriggerTrie" = type { %"class.std::vector", %"class.std::map" }
%"class.std::vector" = type { %"struct.std::_Vector_base" }
%"struct.std::_Vector_base" = type { %"struct.std::_Vector_base<cvc5::internal::theory::quantifiers::inst::Trigger *, std::allocator<cvc5::internal::theory::quantifiers::inst::Trigger *>>::_Vector_impl" }
%"struct.std::_Vector_base<cvc5::internal::theory::quantifiers::inst::Trigger *, std::allocator<cvc5::internal::theory::quantifiers::inst::Trigger *>>::_Vector_impl" = type { %"struct.std::_Vector_base<cvc5::internal::theory::quantifiers::inst::Trigger *, std::allocator<cvc5::internal::theory::quantifiers::inst::Trigger *>>::_Vector_impl_data" }
%"struct.std::_Vector_base<cvc5::internal::theory::quantifiers::inst::Trigger *, std::allocator<cvc5::internal::theory::quantifiers::inst::Trigger *>>::_Vector_impl_data" = type { ptr, ptr, ptr }
%"class.std::map" = type { %"class.std::_Rb_tree" }
%"class.std::_Rb_tree" = type { %"struct.std::_Rb_tree<cvc5::internal::NodeTemplate<true>, std::pair<const cvc5::internal::NodeTemplate<true>, cvc5::internal::theory::quantifiers::inst::TriggerTrie>, std::_Select1st<std::pair<const cvc5::internal::NodeTemplate<true>, cvc5::internal::theory::quantifiers::inst::TriggerTrie>>, std::less<cvc5::internal::NodeTemplate<true>>>::_Rb_tree_impl" }
%"struct.std::_Rb_tree<cvc5::internal::NodeTemplate<true>, std::pair<const cvc5::internal::NodeTemplate<true>, cvc5::internal::theory::quantifiers::inst::TriggerTrie>, std::_Select1st<std::pair<const cvc5::internal::NodeTemplate<true>, cvc5::internal::theory::quantifiers::inst::TriggerTrie>>, std::less<cvc5::internal::NodeTemplate<true>>>::_Rb_tree_impl" = type { %"struct.std::_Rb_tree_key_compare", %"struct.std::_Rb_tree_header" }
%"struct.std::_Rb_tree_key_compare" = type { %"struct.std::less" }
%"struct.std::less" = type { i8 }
%"struct.std::_Rb_tree_header" = type { %"struct.std::_Rb_tree_node_base", i64 }
%"struct.std::_Rb_tree_node_base" = type { i32, ptr, ptr, ptr }

; Function Attrs: mustprogress nounwind uwtable
define linkonce_odr hidden void @_ZN4cvc58internal6EnvObjD2Ev(ptr noundef nonnull align 8 dereferenceable(16) %this) unnamed_addr #5 comdat align 2 {
entry:
  %this.addr = alloca ptr, align 8
  store ptr %this, ptr %this.addr, align 8
  ret void
}

; Function Attrs: mustprogress uwtable
define hidden void @_ZN4cvc58internal6theory11quantifiers4inst15TriggerDatabaseC2ERNS0_3EnvERNS2_16QuantifiersStateERNS2_27QuantifiersInferenceManagerERNS2_19QuantifiersRegistryERNS2_12TermRegistryE(ptr noundef nonnull align 8 dereferenceable(120) %this, ptr noundef nonnull align 1 %env, ptr noundef nonnull align 1 %qs, ptr noundef nonnull align 1 %qim, ptr noundef nonnull align 1 %qr, ptr noundef nonnull align 1 %tr) unnamed_addr #4 align 2 personality ptr @__gxx_personality_v0 {
entry:
  %this.addr = alloca ptr, align 8
  %env.addr = alloca ptr, align 8
  %qs.addr = alloca ptr, align 8
  %qim.addr = alloca ptr, align 8
  %qr.addr = alloca ptr, align 8
  %tr.addr = alloca ptr, align 8
  %exn.slot = alloca ptr, align 8
  %ehselector.slot = alloca i32, align 4
  store ptr %this, ptr %this.addr, align 8
  store ptr %env, ptr %env.addr, align 8
  store ptr %qs, ptr %qs.addr, align 8
  store ptr %qim, ptr %qim.addr, align 8
  store ptr %qr, ptr %qr.addr, align 8
  store ptr %tr, ptr %tr.addr, align 8
  %this1 = load ptr, ptr %this.addr, align 8
  %0 = load ptr, ptr %env.addr, align 8
  call void @_ZN4cvc58internal6EnvObjC2ERNS0_3EnvE(ptr noundef nonnull align 8 dereferenceable(16) %this1, ptr noundef nonnull align 1 %0)
  store ptr getelementptr inbounds ({ [4 x ptr] }, ptr @_ZTVN4cvc58internal6theory11quantifiers4inst15TriggerDatabaseE, i32 0, i32 0, i32 2), ptr %this1, align 8
  %d_trie = getelementptr inbounds %"class.cvc5::internal::theory::quantifiers::inst::TriggerDatabase", ptr %this1, i32 0, i32 1
  invoke void @_ZN4cvc58internal6theory11quantifiers4inst11TriggerTrieC1Ev(ptr noundef nonnull align 8 dereferenceable(72) %d_trie)
          to label %invoke.cont unwind label %lpad

invoke.cont:                                      ; preds = %entry
  %d_qs = getelementptr inbounds %"class.cvc5::internal::theory::quantifiers::inst::TriggerDatabase", ptr %this1, i32 0, i32 2
  %1 = load ptr, ptr %qs.addr, align 8
  store ptr %1, ptr %d_qs, align 8
  %d_qim = getelementptr inbounds %"class.cvc5::internal::theory::quantifiers::inst::TriggerDatabase", ptr %this1, i32 0, i32 3
  %2 = load ptr, ptr %qim.addr, align 8
  store ptr %2, ptr %d_qim, align 8
  %d_qreg = getelementptr inbounds %"class.cvc5::internal::theory::quantifiers::inst::TriggerDatabase", ptr %this1, i32 0, i32 4
  %3 = load ptr, ptr %qr.addr, align 8
  store ptr %3, ptr %d_qreg, align 8
  %d_treg = getelementptr inbounds %"class.cvc5::internal::theory::quantifiers::inst::TriggerDatabase", ptr %this1, i32 0, i32 5
  %4 = load ptr, ptr %tr.addr, align 8
  store ptr %4, ptr %d_treg, align 8
  ret void

lpad:                                             ; preds = %entry
  %5 = landingpad { ptr, i32 }
          cleanup
  %6 = extractvalue { ptr, i32 } %5, 0
  store ptr %6, ptr %exn.slot, align 8
  %7 = extractvalue { ptr, i32 } %5, 1
  store i32 %7, ptr %ehselector.slot, align 4
  call void @_ZN4cvc58internal6EnvObjD2Ev(ptr noundef nonnull align 8 dereferenceable(16) %this1) #3
  br label %eh.resume

eh.resume:                                        ; preds = %lpad
  %exn = load ptr, ptr %exn.slot, align 8
  %sel = load i32, ptr %ehselector.slot, align 4
  %lpad.val = insertvalue { ptr, i32 } poison, ptr %exn, 0
  %lpad.val2 = insertvalue { ptr, i32 } %lpad.val, i32 %sel, 1
  resume { ptr, i32 } %lpad.val2
}