; Function Attrs: mustprogress uwtable
define hidden void @_ZN4cvc58internal6theory11quantifiers4inst15TriggerDatabaseC2ERNS0_3EnvERNS2_16QuantifiersStateERNS2_27QuantifiersInferenceManagerERNS2_19QuantifiersRegistryERNS2_12TermRegistryE(ptr noundef nonnull align 8 dereferenceable(120) %this, ptr noundef nonnull align 1 %env, ptr noundef nonnull align 1 %qs, ptr noundef nonnull align 1 %qim, ptr noundef nonnull align 1 %qr, ptr noundef nonnull align 1 %tr) unnamed_addr #3 align 2 personality ptr @__gxx_personality_v0 {
entry:
  tail call void @_ZN4cvc58internal6EnvObjC2ERNS0_3EnvE(ptr noundef nonnull align 8 dereferenceable(16) %this, ptr noundef nonnull align 1 %env)
  store ptr getelementptr inbounds ({ [4 x ptr] }, ptr @_ZTVN4cvc58internal6theory11quantifiers4inst15TriggerDatabaseE, i64 0, i32 0, i64 2), ptr %this, align 8
  %d_trie = getelementptr inbounds i8, ptr %this, i64 16
  tail call void @_ZN4cvc58internal6theory11quantifiers4inst11TriggerTrieC1Ev(ptr noundef nonnull align 8 dereferenceable(72) %d_trie)
  %d_qs = getelementptr inbounds i8, ptr %this, i64 88
  store ptr %qs, ptr %d_qs, align 8
  %d_qim = getelementptr inbounds i8, ptr %this, i64 96
  store ptr %qim, ptr %d_qim, align 8
  %d_qreg = getelementptr inbounds i8, ptr %this, i64 104
  store ptr %qr, ptr %d_qreg, align 8
  %d_treg = getelementptr inbounds i8, ptr %this, i64 112
  store ptr %tr, ptr %d_treg, align 8
  ret void
}